target datalayout = "e-m:e-p270:32:32-p271:32:32-p272:64:64-i64:64-i128:128-f80:128-n8:16:32:64-S128"
target triple = "x86_64-pc-linux-gnu"

%struct.PaUtilAllocationGroup = type { i64, ptr, ptr, ptr }
%struct.PaUtilAllocationGroupLink = type { ptr, ptr }

; Function Attrs: nounwind uwtable
define internal ptr @AllocateLinks(i64 noundef %0, ptr noundef %1, ptr noundef %2) #0 {
  %4 = alloca i64, align 8
  %5 = alloca ptr, align 8
  %6 = alloca ptr, align 8
  %7 = alloca ptr, align 8
  %8 = alloca i32, align 4
  store i64 %0, ptr %4, align 8, !tbaa !15
  store ptr %1, ptr %5, align 8, !tbaa !7
  store ptr %2, ptr %6, align 8, !tbaa !7
  call void @llvm.lifetime.start.p0(i64 8, ptr %7) #3
  call void @llvm.lifetime.start.p0(i64 4, ptr %8) #3
  %9 = load i64, ptr %4, align 8, !tbaa !15
  %10 = mul i64 16, %9
  %11 = call ptr @PaUtil_AllocateZeroInitializedMemory(i64 noundef %10)
  store ptr %11, ptr %7, align 8, !tbaa !7
  %12 = load ptr, ptr %7, align 8, !tbaa !7
  %13 = icmp ne ptr %12, null
  br i1 %13, label %14, label %54

14:                                               ; preds = %3
  %15 = load ptr, ptr %7, align 8, !tbaa !7
  %16 = load ptr, ptr %7, align 8, !tbaa !7
  %17 = getelementptr inbounds %struct.PaUtilAllocationGroupLink, ptr %16, i64 0
  %18 = getelementptr inbounds nuw %struct.PaUtilAllocationGroupLink, ptr %17, i32 0, i32 1
  store ptr %15, ptr %18, align 8, !tbaa !16
  %19 = load ptr, ptr %5, align 8, !tbaa !7
  %20 = load ptr, ptr %7, align 8, !tbaa !7
  %21 = getelementptr inbounds %struct.PaUtilAllocationGroupLink, ptr %20, i64 0
  %22 = getelementptr inbounds nuw %struct.PaUtilAllocationGroupLink, ptr %21, i32 0, i32 0
  store ptr %19, ptr %22, align 8, !tbaa !18
  store i32 1, ptr %8, align 4, !tbaa !19
  br label %23

23:                                               ; preds = %44, %14
  %24 = load i32, ptr %8, align 4, !tbaa !19
  %25 = sext i32 %24 to i64
  %26 = load i64, ptr %4, align 8, !tbaa !15
  %27 = icmp slt i64 %25, %26
  br i1 %27, label %28, label %47

28:                                               ; preds = %23
  %29 = load ptr, ptr %7, align 8, !tbaa !7
  %30 = load i32, ptr %8, align 4, !tbaa !19
  %31 = sext i32 %30 to i64
  %32 = getelementptr inbounds %struct.PaUtilAllocationGroupLink, ptr %29, i64 %31
  %33 = getelementptr inbounds nuw %struct.PaUtilAllocationGroupLink, ptr %32, i32 0, i32 1
  store ptr null, ptr %33, align 8, !tbaa !16
  %34 = load ptr, ptr %7, align 8, !tbaa !7
  %35 = load i32, ptr %8, align 4, !tbaa !19
  %36 = add nsw i32 %35, 1
  %37 = sext i32 %36 to i64
  %38 = getelementptr inbounds %struct.PaUtilAllocationGroupLink, ptr %34, i64 %37
  %39 = load ptr, ptr %7, align 8, !tbaa !7
  %40 = load i32, ptr %8, align 4, !tbaa !19
  %41 = sext i32 %40 to i64
  %42 = getelementptr inbounds %struct.PaUtilAllocationGroupLink, ptr %39, i64 %41
  %43 = getelementptr inbounds nuw %struct.PaUtilAllocationGroupLink, ptr %42, i32 0, i32 0
  store ptr %38, ptr %43, align 8, !tbaa !18
  br label %44

44:                                               ; preds = %28
  %45 = load i32, ptr %8, align 4, !tbaa !19
  %46 = add nsw i32 %45, 1
  store i32 %46, ptr %8, align 4, !tbaa !19
  br label %23, !llvm.loop !21

47:                                               ; preds = %23
  %48 = load ptr, ptr %6, align 8, !tbaa !7
  %49 = load ptr, ptr %7, align 8, !tbaa !7
  %50 = load i64, ptr %4, align 8, !tbaa !15
  %51 = sub nsw i64 %50, 1
  %52 = getelementptr inbounds %struct.PaUtilAllocationGroupLink, ptr %49, i64 %51
  %53 = getelementptr inbounds nuw %struct.PaUtilAllocationGroupLink, ptr %52, i32 0, i32 0
  store ptr %48, ptr %53, align 8, !tbaa !18
  br label %54

54:                                               ; preds = %47, %3
  %55 = load ptr, ptr %7, align 8, !tbaa !7
  call void @llvm.lifetime.end.p0(i64 4, ptr %8) #3
  call void @llvm.lifetime.end.p0(i64 8, ptr %7) #3
  ret ptr %55
}

; Function Attrs: nounwind uwtable
define ptr @PaUtil_GroupAllocateZeroInitializedMemory(ptr noundef %0, i64 noundef %1) #0 {
  %3 = alloca ptr, align 8
  %4 = alloca i64, align 8
  %5 = alloca ptr, align 8
  %6 = alloca ptr, align 8
  %7 = alloca ptr, align 8
  store ptr %0, ptr %3, align 8, !tbaa !3
  store i64 %1, ptr %4, align 8, !tbaa !15
  call void @llvm.lifetime.start.p0(i64 8, ptr %5) #3
  call void @llvm.lifetime.start.p0(i64 8, ptr %6) #3
  call void @llvm.lifetime.start.p0(i64 8, ptr %7) #3
  store ptr null, ptr %7, align 8, !tbaa !3
  %8 = load ptr, ptr %3, align 8, !tbaa !3
  %9 = getelementptr inbounds nuw %struct.PaUtilAllocationGroup, ptr %8, i32 0, i32 2
  %10 = load ptr, ptr %9, align 8, !tbaa !13
  %11 = icmp ne ptr %10, null
  br i1 %11, label %42, label %12

12:                                               ; preds = %2
  %13 = load ptr, ptr %3, align 8, !tbaa !3
  %14 = getelementptr inbounds nuw %struct.PaUtilAllocationGroup, ptr %13, i32 0, i32 0
  %15 = load i64, ptr %14, align 8, !tbaa !9
  %16 = load ptr, ptr %3, align 8, !tbaa !3
  %17 = getelementptr inbounds nuw %struct.PaUtilAllocationGroup, ptr %16, i32 0, i32 1
  %18 = load ptr, ptr %17, align 8, !tbaa !12
  %19 = load ptr, ptr %3, align 8, !tbaa !3
  %20 = getelementptr inbounds nuw %struct.PaUtilAllocationGroup, ptr %19, i32 0, i32 2
  %21 = load ptr, ptr %20, align 8, !tbaa !13
  %22 = call ptr @AllocateLinks(i64 noundef %15, ptr noundef %18, ptr noundef %21)
  store ptr %22, ptr %5, align 8, !tbaa !7
  %23 = load ptr, ptr %5, align 8, !tbaa !7
  %24 = icmp ne ptr %23, null
  br i1 %24, label %25, label %41

25:                                               ; preds = %12
  %26 = load ptr, ptr %3, align 8, !tbaa !3
  %27 = getelementptr inbounds nuw %struct.PaUtilAllocationGroup, ptr %26, i32 0, i32 0
  %28 = load i64, ptr %27, align 8, !tbaa !9
  %29 = load ptr, ptr %3, align 8, !tbaa !3
  %30 = getelementptr inbounds nuw %struct.PaUtilAllocationGroup, ptr %29, i32 0, i32 0
  %31 = load i64, ptr %30, align 8, !tbaa !9
  %32 = add nsw i64 %31, %28
  store i64 %32, ptr %30, align 8, !tbaa !9
  %33 = load ptr, ptr %5, align 8, !tbaa !7
  %34 = getelementptr inbounds %struct.PaUtilAllocationGroupLink, ptr %33, i64 0
  %35 = load ptr, ptr %3, align 8, !tbaa !3
  %36 = getelementptr inbounds nuw %struct.PaUtilAllocationGroup, ptr %35, i32 0, i32 1
  store ptr %34, ptr %36, align 8, !tbaa !12
  %37 = load ptr, ptr %5, align 8, !tbaa !7
  %38 = getelementptr inbounds %struct.PaUtilAllocationGroupLink, ptr %37, i64 1
  %39 = load ptr, ptr %3, align 8, !tbaa !3
  %40 = getelementptr inbounds nuw %struct.PaUtilAllocationGroup, ptr %39, i32 0, i32 2
  store ptr %38, ptr %40, align 8, !tbaa !13
  br label %41

41:                                               ; preds = %25, %12
  br label %42

42:                                               ; preds = %41, %2
  %43 = load ptr, ptr %3, align 8, !tbaa !3
  %44 = getelementptr inbounds nuw %struct.PaUtilAllocationGroup, ptr %43, i32 0, i32 2
  %45 = load ptr, ptr %44, align 8, !tbaa !13
  %46 = icmp ne ptr %45, null
  br i1 %46, label %47, label %73

47:                                               ; preds = %42
  %48 = load i64, ptr %4, align 8, !tbaa !15
  %49 = call ptr @PaUtil_AllocateZeroInitializedMemory(i64 noundef %48)
  store ptr %49, ptr %7, align 8, !tbaa !3
  %50 = load ptr, ptr %7, align 8, !tbaa !3
  %51 = icmp ne ptr %50, null
  br i1 %51, label %52, label %72

52:                                               ; preds = %47
  %53 = load ptr, ptr %3, align 8, !tbaa !3
  %54 = getelementptr inbounds nuw %struct.PaUtilAllocationGroup, ptr %53, i32 0, i32 2
  %55 = load ptr, ptr %54, align 8, !tbaa !13
  store ptr %55, ptr %6, align 8, !tbaa !7
  %56 = load ptr, ptr %6, align 8, !tbaa !7
  %57 = getelementptr inbounds nuw %struct.PaUtilAllocationGroupLink, ptr %56, i32 0, i32 0
  %58 = load ptr, ptr %57, align 8, !tbaa !18
  %59 = load ptr, ptr %3, align 8, !tbaa !3
  %60 = getelementptr inbounds nuw %struct.PaUtilAllocationGroup, ptr %59, i32 0, i32 2
  store ptr %58, ptr %60, align 8, !tbaa !13
  %61 = load ptr, ptr %7, align 8, !tbaa !3
  %62 = load ptr, ptr %6, align 8, !tbaa !7
  %63 = getelementptr inbounds nuw %struct.PaUtilAllocationGroupLink, ptr %62, i32 0, i32 1
  store ptr %61, ptr %63, align 8, !tbaa !16
  %64 = load ptr, ptr %3, align 8, !tbaa !3
  %65 = getelementptr inbounds nuw %struct.PaUtilAllocationGroup, ptr %64, i32 0, i32 3
  %66 = load ptr, ptr %65, align 8, !tbaa !14
  %67 = load ptr, ptr %6, align 8, !tbaa !7
  %68 = getelementptr inbounds nuw %struct.PaUtilAllocationGroupLink, ptr %67, i32 0, i32 0
  store ptr %66, ptr %68, align 8, !tbaa !18
  %69 = load ptr, ptr %6, align 8, !tbaa !7
  %70 = load ptr, ptr %3, align 8, !tbaa !3
  %71 = getelementptr inbounds nuw %struct.PaUtilAllocationGroup, ptr %70, i32 0, i32 3
  store ptr %69, ptr %71, align 8, !tbaa !14
  br label %72

72:                                               ; preds = %52, %47
  br label %73

73:                                               ; preds = %72, %42
  %74 = load ptr, ptr %7, align 8, !tbaa !3
  call void @llvm.lifetime.end.p0(i64 8, ptr %7) #3
  call void @llvm.lifetime.end.p0(i64 8, ptr %6) #3
  call void @llvm.lifetime.end.p0(i64 8, ptr %5) #3
  ret ptr %74
}