; Function Attrs: nounwind uwtable
define ptr @PaUtil_GroupAllocateZeroInitializedMemory(ptr noundef captures(none) %0, i64 noundef %1) local_unnamed_addr #0 {
  %3 = getelementptr inbounds nuw i8, ptr %0, i64 16
  %4 = load ptr, ptr %3, align 8, !tbaa !16
  %.not = icmp eq ptr %4, null
  br i1 %.not, label %5, label %.thread

5:                                                ; preds = %2
  %6 = load i64, ptr %0, align 8, !tbaa !12
  %7 = getelementptr inbounds nuw i8, ptr %0, i64 8
  %8 = load ptr, ptr %7, align 8, !tbaa !15
  %9 = shl i64 %6, 4
  %10 = tail call ptr @PaUtil_AllocateZeroInitializedMemory(i64 noundef %9) #2
  %.not.i = icmp eq ptr %10, null
  br i1 %.not.i, label %22, label %11

11:                                               ; preds = %5
  %12 = getelementptr inbounds nuw i8, ptr %10, i64 8
  store ptr %10, ptr %12, align 8, !tbaa !3
  store ptr %8, ptr %10, align 8, !tbaa !9
  %13 = icmp sgt i64 %6, 1
  br i1 %13, label %.lr.ph.i, label %.loopexit

.lr.ph.i:                                         ; preds = %11, %.lr.ph.i
  %indvars.iv.i = phi i64 [ %indvars.iv.next.i, %.lr.ph.i ], [ 1, %11 ]
  %14 = getelementptr inbounds nuw %struct.PaUtilAllocationGroupLink, ptr %10, i64 %indvars.iv.i
  %15 = getelementptr inbounds nuw i8, ptr %14, i64 8
  store ptr null, ptr %15, align 8, !tbaa !3
  %indvars.iv.next.i = add nuw nsw i64 %indvars.iv.i, 1
  %16 = getelementptr inbounds nuw %struct.PaUtilAllocationGroupLink, ptr %10, i64 %indvars.iv.next.i
  store ptr %16, ptr %14, align 8, !tbaa !9
  %exitcond.not.i = icmp eq i64 %indvars.iv.next.i, %6
  br i1 %exitcond.not.i, label %.loopexit, label %.lr.ph.i, !llvm.loop !10

.loopexit:                                        ; preds = %.lr.ph.i, %11
  %17 = getelementptr %struct.PaUtilAllocationGroupLink, ptr %10, i64 %6
  %18 = getelementptr i8, ptr %17, i64 -16
  store ptr null, ptr %18, align 8, !tbaa !9
  %19 = load i64, ptr %0, align 8, !tbaa !12
  %20 = shl nsw i64 %19, 1
  store i64 %20, ptr %0, align 8, !tbaa !12
  store ptr %10, ptr %7, align 8, !tbaa !15
  %21 = getelementptr inbounds nuw i8, ptr %10, i64 16
  store ptr %21, ptr %3, align 8, !tbaa !16
  br label %.thread

22:                                               ; preds = %5
  %.pr = load ptr, ptr %3, align 8, !tbaa !16
  %.not27 = icmp eq ptr %.pr, null
  br i1 %.not27, label %30, label %.thread

.thread:                                          ; preds = %2, %.loopexit, %22
  %23 = tail call ptr @PaUtil_AllocateZeroInitializedMemory(i64 noundef %1) #2
  %.not28 = icmp eq ptr %23, null
  br i1 %.not28, label %30, label %24

24:                                               ; preds = %.thread
  %25 = load ptr, ptr %3, align 8, !tbaa !16
  %26 = load ptr, ptr %25, align 8, !tbaa !9
  store ptr %26, ptr %3, align 8, !tbaa !16
  %27 = getelementptr inbounds nuw i8, ptr %25, i64 8
  store ptr %23, ptr %27, align 8, !tbaa !3
  %28 = getelementptr inbounds nuw i8, ptr %0, i64 24
  %29 = load ptr, ptr %28, align 8, !tbaa !17
  store ptr %29, ptr %25, align 8, !tbaa !9
  store ptr %25, ptr %28, align 8, !tbaa !17
  br label %30

30:                                               ; preds = %.thread, %24, %22
  %.0 = phi ptr [ %23, %24 ], [ null, %.thread ], [ null, %22 ]
  ret ptr %.0
}